target datalayout = "e-m:e-p270:32:32-p271:32:32-p272:64:64-i64:64-i128:128-f80:128-n8:16:32:64-S128"
target triple = "x86_64-pc-linux-gnu"

@H5_init_g = external global i8, align 1
@H5_libterm_g = external global i8, align 1
@H5_crc_table_computed = internal global i8 0, align 1
@H5_crc_table = internal global [256 x i32] zeroinitializer, align 16

; Function Attrs: nounwind uwtable
define internal void @H5__checksum_crc_make_table() #0 {
  %1 = alloca i32, align 4
  %2 = alloca i32, align 4
  %3 = alloca i32, align 4
  call void @llvm.lifetime.start.p0(i64 4, ptr %1) #3
  call void @llvm.lifetime.start.p0(i64 4, ptr %2) #3
  call void @llvm.lifetime.start.p0(i64 4, ptr %3) #3
  %4 = load i8, ptr @H5_init_g, align 1, !tbaa !13, !range !15, !noundef !16
  %5 = trunc i8 %4 to i1
  br i1 %5, label %10, label %6

6:                                                ; preds = %0
  %7 = load i8, ptr @H5_libterm_g, align 1, !tbaa !13, !range !15, !noundef !16
  %8 = trunc i8 %7 to i1
  %9 = xor i1 %8, true
  br label %10

10:                                               ; preds = %6, %0
  %11 = phi i1 [ true, %0 ], [ %9, %6 ]
  %12 = xor i1 %11, true
  %13 = xor i1 %12, true
  %14 = zext i1 %13 to i32
  %15 = sext i32 %14 to i64
  %16 = call i64 @llvm.expect.i64(i64 %15, i64 1)
  %17 = icmp ne i64 %16, 0
  br i1 %17, label %18, label %51

18:                                               ; preds = %10
  store i32 0, ptr %2, align 4, !tbaa !11
  br label %19

19:                                               ; preds = %47, %18
  %20 = load i32, ptr %2, align 4, !tbaa !11
  %21 = icmp ult i32 %20, 256
  br i1 %21, label %22, label %50

22:                                               ; preds = %19
  %23 = load i32, ptr %2, align 4, !tbaa !11
  store i32 %23, ptr %1, align 4, !tbaa !11
  store i32 0, ptr %3, align 4, !tbaa !11
  br label %24

24:                                               ; preds = %39, %22
  %25 = load i32, ptr %3, align 4, !tbaa !11
  %26 = icmp ult i32 %25, 8
  br i1 %26, label %27, label %42

27:                                               ; preds = %24
  %28 = load i32, ptr %1, align 4, !tbaa !11
  %29 = and i32 %28, 1
  %30 = icmp ne i32 %29, 0
  br i1 %30, label %31, label %35

31:                                               ; preds = %27
  %32 = load i32, ptr %1, align 4, !tbaa !11
  %33 = lshr i32 %32, 1
  %34 = xor i32 79764919, %33
  store i32 %34, ptr %1, align 4, !tbaa !11
  br label %38

35:                                               ; preds = %27
  %36 = load i32, ptr %1, align 4, !tbaa !11
  %37 = lshr i32 %36, 1
  store i32 %37, ptr %1, align 4, !tbaa !11
  br label %38

38:                                               ; preds = %35, %31
  br label %39

39:                                               ; preds = %38
  %40 = load i32, ptr %3, align 4, !tbaa !11
  %41 = add i32 %40, 1
  store i32 %41, ptr %3, align 4, !tbaa !11
  br label %24, !llvm.loop !24

42:                                               ; preds = %24
  %43 = load i32, ptr %1, align 4, !tbaa !11
  %44 = load i32, ptr %2, align 4, !tbaa !11
  %45 = zext i32 %44 to i64
  %46 = getelementptr inbounds nuw [256 x i32], ptr @H5_crc_table, i64 0, i64 %45
  store i32 %43, ptr %46, align 4, !tbaa !11
  br label %47

47:                                               ; preds = %42
  %48 = load i32, ptr %2, align 4, !tbaa !11
  %49 = add i32 %48, 1
  store i32 %49, ptr %2, align 4, !tbaa !11
  br label %19, !llvm.loop !25

50:                                               ; preds = %19
  store i8 1, ptr @H5_crc_table_computed, align 1, !tbaa !13
  br label %51

51:                                               ; preds = %50, %10
  call void @llvm.lifetime.end.p0(i64 4, ptr %3) #3
  call void @llvm.lifetime.end.p0(i64 4, ptr %2) #3
  call void @llvm.lifetime.end.p0(i64 4, ptr %1) #3
  ret void
}

; Function Attrs: nounwind uwtable
define internal i32 @H5__checksum_crc_update(i32 noundef %0, ptr noundef %1, i64 noundef %2) #0 {
  %4 = alloca i32, align 4
  %5 = alloca ptr, align 8
  %6 = alloca i64, align 8
  %7 = alloca i64, align 8
  store i32 %0, ptr %4, align 4, !tbaa !11
  store ptr %1, ptr %5, align 8, !tbaa !9
  store i64 %2, ptr %6, align 8, !tbaa !7
  call void @llvm.lifetime.start.p0(i64 8, ptr %7) #3
  %8 = load i8, ptr @H5_init_g, align 1, !tbaa !13, !range !15, !noundef !16
  %9 = trunc i8 %8 to i1
  br i1 %9, label %14, label %10

10:                                               ; preds = %3
  %11 = load i8, ptr @H5_libterm_g, align 1, !tbaa !13, !range !15, !noundef !16
  %12 = trunc i8 %11 to i1
  %13 = xor i1 %12, true
  br label %14

14:                                               ; preds = %10, %3
  %15 = phi i1 [ true, %3 ], [ %13, %10 ]
  %16 = xor i1 %15, true
  %17 = xor i1 %16, true
  %18 = zext i1 %17 to i32
  %19 = sext i32 %18 to i64
  %20 = call i64 @llvm.expect.i64(i64 %19, i64 1)
  %21 = icmp ne i64 %20, 0
  br i1 %21, label %22, label %50

22:                                               ; preds = %14
  %23 = load i8, ptr @H5_crc_table_computed, align 1, !tbaa !13, !range !15, !noundef !16
  %24 = trunc i8 %23 to i1
  br i1 %24, label %26, label %25

25:                                               ; preds = %22
  call void @H5__checksum_crc_make_table()
  br label %26

26:                                               ; preds = %25, %22
  store i64 0, ptr %7, align 8, !tbaa !7
  br label %27

27:                                               ; preds = %46, %26
  %28 = load i64, ptr %7, align 8, !tbaa !7
  %29 = load i64, ptr %6, align 8, !tbaa !7
  %30 = icmp ult i64 %28, %29
  br i1 %30, label %31, label %49

31:                                               ; preds = %27
  %32 = load i32, ptr %4, align 4, !tbaa !11
  %33 = load ptr, ptr %5, align 8, !tbaa !9
  %34 = load i64, ptr %7, align 8, !tbaa !7
  %35 = getelementptr inbounds nuw i8, ptr %33, i64 %34
  %36 = load i8, ptr %35, align 1, !tbaa !17
  %37 = zext i8 %36 to i32
  %38 = xor i32 %32, %37
  %39 = and i32 %38, 255
  %40 = zext i32 %39 to i64
  %41 = getelementptr inbounds nuw [256 x i32], ptr @H5_crc_table, i64 0, i64 %40
  %42 = load i32, ptr %41, align 4, !tbaa !11
  %43 = load i32, ptr %4, align 4, !tbaa !11
  %44 = lshr i32 %43, 8
  %45 = xor i32 %42, %44
  store i32 %45, ptr %4, align 4, !tbaa !11
  br label %46

46:                                               ; preds = %31
  %47 = load i64, ptr %7, align 8, !tbaa !7
  %48 = add i64 %47, 1
  store i64 %48, ptr %7, align 8, !tbaa !7
  br label %27, !llvm.loop !21

49:                                               ; preds = %27
  br label %50

50:                                               ; preds = %49, %14
  %51 = load i32, ptr %4, align 4, !tbaa !11
  call void @llvm.lifetime.end.p0(i64 8, ptr %7) #3
  ret i32 %51
}

; Function Attrs: nounwind uwtable
define i32 @H5_checksum_crc(ptr noundef %0, i64 noundef %1) #0 {
  %3 = alloca ptr, align 8
  %4 = alloca i64, align 8
  store ptr %0, ptr %3, align 8, !tbaa !3
  store i64 %1, ptr %4, align 8, !tbaa !7
  %5 = load i8, ptr @H5_init_g, align 1, !tbaa !13, !range !15, !noundef !16
  %6 = trunc i8 %5 to i1
  br i1 %6, label %11, label %7

7:                                                ; preds = %2
  %8 = load i8, ptr @H5_libterm_g, align 1, !tbaa !13, !range !15, !noundef !16
  %9 = trunc i8 %8 to i1
  %10 = xor i1 %9, true
  br label %11

11:                                               ; preds = %7, %2
  %12 = phi i1 [ true, %2 ], [ %10, %7 ]
  %13 = xor i1 %12, true
  %14 = xor i1 %13, true
  %15 = zext i1 %14 to i32
  %16 = sext i32 %15 to i64
  %17 = call i64 @llvm.expect.i64(i64 %16, i64 1)
  %18 = icmp ne i64 %17, 0
  br i1 %18, label %19, label %20

19:                                               ; preds = %11
  br label %20

20:                                               ; preds = %19, %11
  %21 = load ptr, ptr %3, align 8, !tbaa !3
  %22 = load i64, ptr %4, align 8, !tbaa !7
  %23 = call i32 @H5__checksum_crc_update(i32 noundef -1, ptr noundef %21, i64 noundef %22)
  %24 = zext i32 %23 to i64
  %25 = xor i64 %24, 4294967295
  %26 = trunc i64 %25 to i32
  ret i32 %26
}